; Function Attrs: mustprogress nofree norecurse nosync nounwind willreturn memory(argmem: readwrite) uwtable
define noundef nonnull align 8 dereferenceable(48) ptr @_ZN4LIEF3ELF23SymbolVersionDefinitionaSES1_(ptr noundef nonnull returned align 8 dereferenceable(48) %0, ptr nocapture noundef %1) local_unnamed_addr #6 align 2 personality ptr @__gxx_personality_v0 {
  %3 = getelementptr inbounds i8, ptr %0, i64 8
  %4 = getelementptr inbounds i8, ptr %1, i64 8
  %5 = load i16, ptr %3, align 8
  %6 = load i16, ptr %4, align 2
  store i16 %6, ptr %3, align 8
  store i16 %5, ptr %4, align 2
  %7 = getelementptr inbounds i8, ptr %0, i64 10
  %8 = getelementptr inbounds i8, ptr %1, i64 10
  %9 = load i16, ptr %7, align 2
  %10 = load i16, ptr %8, align 2
  store i16 %10, ptr %7, align 2
  store i16 %9, ptr %8, align 2
  %11 = getelementptr inbounds i8, ptr %0, i64 12
  %12 = getelementptr inbounds i8, ptr %1, i64 12
  %13 = load i16, ptr %11, align 4
  %14 = load i16, ptr %12, align 2
  store i16 %14, ptr %11, align 4
  store i16 %13, ptr %12, align 2
  %15 = getelementptr inbounds i8, ptr %0, i64 16
  %16 = getelementptr inbounds i8, ptr %1, i64 16
  %17 = load i32, ptr %15, align 8
  %18 = load i32, ptr %16, align 4
  store i32 %18, ptr %15, align 8
  store i32 %17, ptr %16, align 4
  %19 = getelementptr inbounds i8, ptr %0, i64 24
  %20 = getelementptr inbounds i8, ptr %1, i64 24
  %21 = getelementptr inbounds i8, ptr %0, i64 32
  %22 = getelementptr inbounds i8, ptr %0, i64 40
  %23 = load ptr, ptr %22, align 8
  %24 = load ptr, ptr %20, align 8
  %25 = getelementptr inbounds i8, ptr %1, i64 32
  %26 = getelementptr inbounds i8, ptr %1, i64 40
  %27 = load <2 x ptr>, ptr %19, align 8
  store ptr %24, ptr %19, align 8
  %28 = load ptr, ptr %25, align 8
  store ptr %28, ptr %21, align 8
  %29 = load ptr, ptr %26, align 8
  store ptr %29, ptr %22, align 8
  store <2 x ptr> %27, ptr %20, align 8
  store ptr %23, ptr %26, align 8
  ret ptr %0
}